Certificate:
    Data:
        Version: 3 (0x2)
        Serial Number: 1 (0x1)
        Signature Algorithm: sha256WithRSAEncryption
        Issuer: C=JP, ST=Tokyo, L=Chuo-ku, O=JinCreek, CN=JinCreek CA
        Validity
            Not Before: Dec 26 07:06:54 2019 GMT
            Not After : Dec 23 07:06:54 2029 GMT
        Subject: C=JP, ST=Tokyo, O=JinCreek, CN=www.jincreek.jp
        Subject Public Key Info:
            Public Key Algorithm: rsaEncryption
                RSA Public-Key: (2048 bit)
                Modulus:
                    00:97:f6:47:0d:f0:f1:09:d7:fc:da:a7:53:8e:76:
                    41:a7:25:f9:ff:c5:f4:92:60:af:61:52:ea:75:ae:
                    2b:16:41:f1:af:45:05:cd:40:03:43:9f:61:cb:2d:
                    3f:62:a2:31:b8:f4:4e:a0:81:76:3a:7c:86:44:c6:
                    3e:ef:52:91:9f:60:3a:76:c1:f7:97:b3:bc:af:c5:
                    d9:7a:1f:0d:ea:62:95:8a:26:d5:70:ed:14:ba:31:
                    3e:57:9d:91:45:4b:aa:ff:65:c2:6c:19:09:54:30:
                    a7:09:d1:1d:dc:eb:5e:e0:c3:62:59:af:ae:97:0a:
                    ae:8c:bd:2c:c7:24:fb:cd:d4:e5:7b:be:c0:8c:5d:
                    62:73:4b:59:bc:03:e8:10:67:49:eb:73:00:94:b2:
                    51:34:2c:d7:8e:a7:bc:1f:d7:ac:4e:6c:20:56:16:
                    cc:b0:31:13:ea:98:c9:ae:83:98:b8:b5:7b:6e:57:
                    b5:96:76:d2:44:64:99:83:18:e4:49:83:0c:a8:fd:
                    a1:dd:31:44:61:58:20:d9:d0:ba:d9:3c:2a:59:9c:
                    e4:e6:d0:e3:63:31:c8:ee:db:89:a3:ca:14:ad:5f:
                    cd:97:8b:68:c6:84:1f:76:c0:67:22:bd:1c:fe:01:
                    93:0c:0b:a9:54:47:19:d6:fa:1a:96:78:3e:d5:e6:
                    f0:5b
                Exponent: 65537 (0x10001)
        X509v3 extensions:
            X509v3 Basic Constraints: 
                CA:FALSE
            Netscape Cert Type: 
                SSL Client, S/MIME, Object Signing
            Netscape Comment: 
                OpenSSL Generated Certificate
            X509v3 Subject Key Identifier: 
                49:28:B3:D9:35:85:1B:B6:94:5A:1D:3B:18:7B:A5:38:B7:6E:1B:33
            X509v3 Authority Key Identifier: 
                keyid:EC:CF:F0:87:1E:2A:47:D8:72:2C:5E:5B:9B:8B:96:9B:1C:AA:58:41

    Signature Algorithm: sha256WithRSAEncryption
         85:9f:6c:c6:72:9e:8d:7d:0b:69:7f:ba:5d:47:2d:32:ba:a4:
         89:1d:54:d5:7d:31:17:b2:44:fa:75:e9:66:11:ba:e1:1b:9e:
         9f:11:42:ff:45:b7:d0:10:1e:f0:a0:4a:43:f9:89:65:c4:24:
         32:8f:35:c0:8b:73:8b:85:69:8e:1c:01:bc:d6:e3:7c:4a:bd:
         0a:dc:e4:21:13:b3:9c:94:58:45:7a:d7:55:72:c4:f5:d2:5d:
         05:0d:a4:bd:ee:0b:80:7b:fc:75:c7:57:70:70:f3:54:98:af:
         88:37:9f:98:a4:e2:1b:af:2c:1f:b2:f8:25:dc:eb:d6:20:21:
         d8:84:eb:37:83:22:fb:1c:d3:b4:46:be:43:e7:87:34:1f:a1:
         fd:22:a2:ed:77:bb:85:19:13:5e:24:a0:0c:e0:db:67:71:6a:
         a5:49:64:69:0d:e5:4d:39:70:15:a7:2a:10:c3:5b:fb:06:ac:
         d8:04:91:c8:46:8b:53:cb:12:62:96:e8:58:6e:24:0a:4f:ca:
         ea:eb:2d:3d:d4:25:91:1f:4f:7e:a1:02:cf:6c:c8:07:f8:f3:
         88:7b:03:0c:d9:8a:5f:42:54:cd:a7:5f:ae:33:d7:7d:11:3e:
         d1:1c:42:56:83:fa:88:a5:4f:0f:e1:1d:c8:4c:5e:ee:0f:18:
         4b:d4:c9:f9
-----BEGIN CERTIFICATE-----
MIIDrTCCApWgAwIBAgIBATANBgkqhkiG9w0BAQsFADBYMQswCQYDVQQGEwJKUDEO
MAwGA1UECAwFVG9reW8xEDAOBgNVBAcMB0NodW8ta3UxETAPBgNVBAoMCEppbkNy
ZWVrMRQwEgYDVQQDDAtKaW5DcmVlayBDQTAeFw0xOTEyMjYwNzA2NTRaFw0yOTEy
MjMwNzA2NTRaMEoxCzAJBgNVBAYTAkpQMQ4wDAYDVQQIDAVUb2t5bzERMA8GA1UE
CgwISmluQ3JlZWsxGDAWBgNVBAMMD3d3dy5qaW5jcmVlay5qcDCCASIwDQYJKoZI
hvcNAQEBBQADggEPADCCAQoCggEBAJf2Rw3w8QnX/NqnU452Qacl+f/F9JJgr2FS
6nWuKxZB8a9FBc1AA0OfYcstP2KiMbj0TqCBdjp8hkTGPu9SkZ9gOnbB95ezvK/F
2XofDepilYom1XDtFLoxPledkUVLqv9lwmwZCVQwpwnRHdzrXuDDYlmvrpcKroy9
LMck+83U5Xu+wIxdYnNLWbwD6BBnSetzAJSyUTQs146nvB/XrE5sIFYWzLAxE+qY
ya6DmLi1e25XtZZ20kRkmYMY5EmDDKj9od0xRGFYINnQutk8Klmc5ObQ42MxyO7b
iaPKFK1fzZeLaMaEH3bAZyK9HP4BkwwLqVRHGdb6GpZ4PtXm8FsCAwEAAaOBjzCB
jDAJBgNVHRMEAjAAMBEGCWCGSAGG+EIBAQQEAwIEsDAsBglghkgBhvhCAQ0EHxYd
T3BlblNTTCBHZW5lcmF0ZWQgQ2VydGlmaWNhdGUwHQYDVR0OBBYEFEkos9k1hRu2
lFodOxh7pTi3bhszMB8GA1UdIwQYMBaAFOzP8IceKkfYcixeW5uLlpscqlhBMA0G
CSqGSIb3DQEBCwUAA4IBAQCFn2zGcp6NfQtpf7pdRy0yuqSJHVTVfTEXskT6delm
EbrhG56fEUL/RbfQEB7woEpD+YllxCQyjzXAi3OLhWmOHAG81uN8Sr0K3OQhE7Oc
lFhFetdVcsT10l0FDaS97guAe/x1x1dwcPNUmK+IN5+YpOIbrywfsvgl3OvWICHY
hOs3gyL7HNO0Rr5D54c0H6H9IqLtd7uFGRNeJKAM4NtncWqlSWRpDeVNOXAVpyoQ
w1v7BqzYBJHIRotTyxJiluhYbiQKT8rq6y091CWRH09+oQLPbMgH+POIewMM2Ypf
QlTNp1+uM9d9ET7RHEJWg/qIpU8P4R3ITF7uDxhL1Mn5
-----END CERTIFICATE-----
